; Function Attrs: mustprogress nounwind uwtable
define hidden void @_ZN5Klass29check_array_allocation_lengthEiiP10JavaThread(i32 noundef %0, i32 noundef %1, ptr noundef %2) local_unnamed_addr #0 align 2 {
  %4 = alloca %class.FormatBuffer, align 8
  %5 = icmp sgt i32 %0, %1
  br i1 %5, label %6, label %17

6:                                                ; preds = %3
  %7 = getelementptr inbounds i8, ptr %2, i64 1148
  %8 = load i8, ptr %7, align 4
  %9 = trunc i8 %8 to i1
  br i1 %9, label %15, label %10

10:                                               ; preds = %6
  tail call void @_Z25report_java_out_of_memoryPKc(ptr noundef nonnull @.str.16) #21
  %11 = load i8, ptr @_ZN11JvmtiExport31_should_post_resource_exhaustedE, align 1
  %12 = trunc i8 %11 to i1
  br i1 %12, label %13, label %_ZN11JvmtiExport25post_array_size_exhaustedEv.exit

13:                                               ; preds = %10
  tail call void @_ZN11JvmtiExport23post_resource_exhaustedEiPKc(i32 noundef 1, ptr noundef nonnull @.str.16) #21
  br label %_ZN11JvmtiExport25post_array_size_exhaustedEv.exit

_ZN11JvmtiExport25post_array_size_exhaustedEv.exit: ; preds = %10, %13
  %14 = tail call noundef ptr @_ZN8Universe30out_of_memory_error_array_sizeEv() #21
  tail call void @_ZN10Exceptions10_throw_oopEP10JavaThreadPKciP7oopDesc(ptr noundef nonnull %2, ptr noundef nonnull @.str, i32 noundef 879, ptr noundef %14) #21
  br label %22

15:                                               ; preds = %6
  %16 = tail call noundef ptr @_ZN8Universe47out_of_memory_error_java_heap_without_backtraceEv() #21
  tail call void @_ZN10Exceptions10_throw_oopEP10JavaThreadPKciP7oopDesc(ptr noundef nonnull %2, ptr noundef nonnull @.str, i32 noundef 881, ptr noundef %16) #21
  br label %22

17:                                               ; preds = %3
  %18 = icmp slt i32 %0, 0
  br i1 %18, label %19, label %22

19:                                               ; preds = %17
  %20 = load ptr, ptr getelementptr inbounds (i8, ptr @_ZN6Symbol11_vm_symbolsE, i64 1184), align 8
  call void (ptr, ptr, ...) @_ZN12FormatBufferILm256EEC2EPKcz(ptr noundef nonnull align 8 dereferenceable(264) %4, ptr noundef nonnull @.str.17, i32 noundef %0)
  %21 = load ptr, ptr %4, align 8
  call void @_ZN10Exceptions10_throw_msgEP10JavaThreadPKciP6SymbolS3_(ptr noundef %2, ptr noundef nonnull @.str, i32 noundef 884, ptr noundef %20, ptr noundef %21) #21
  br label %22

22:                                               ; preds = %17, %19, %15, %_ZN11JvmtiExport25post_array_size_exhaustedEv.exit
  ret void
}